Certificate:
    Data:
        Version: 1 (0x0)
        Serial Number: 1 (0x1)
    Signature Algorithm: sha512WithRSAEncryption
        Issuer: C=US, ST=CA, O=Open vSwitch, OU=switchca, CN=OVS switchca CA Certificate (2020 7\xC3\xA6\xC2\x9C\xC2\x88 05 09:43:52)
        Validity
            Not Before: Jul  5 01:43:52 2020 GMT
            Not After : Jul  3 01:43:52 2030 GMT
        Subject: C=US, ST=CA, O=Open vSwitch, OU=switchca, CN=OVS switchca CA Certificate (2020 7\xC3\xA6\xC2\x9C\xC2\x88 05 09:43:52)
        Subject Public Key Info:
            Public Key Algorithm: rsaEncryption
                Public-Key: (2048 bit)
                Modulus:
                    00:b2:03:ff:8d:12:39:7f:f4:03:1a:1c:2b:a5:58:
                    71:e0:6e:0f:7b:05:75:9e:9c:fb:f8:d2:d8:2c:78:
                    40:39:2e:86:48:d3:5f:38:ab:0a:e3:e3:20:89:00:
                    da:89:a1:1b:ba:38:6f:46:7a:46:23:89:cd:1b:74:
                    4a:67:60:1e:ee:8e:d7:bd:c6:c4:82:c9:12:67:ad:
                    b1:c4:ed:a8:c6:84:02:ff:b3:80:58:ea:44:68:3e:
                    fd:8c:38:32:dc:f9:83:f8:94:f3:bf:c7:75:fc:43:
                    4d:b4:40:d1:19:c7:18:d4:d3:81:2a:3c:e9:6b:41:
                    99:6c:66:08:69:88:96:5e:1d:ce:e9:94:09:7d:92:
                    05:c4:8d:5b:91:ed:1d:c4:bf:fc:64:e4:0c:e7:2f:
                    4e:de:2d:af:02:fb:9a:f6:ff:fa:ae:c7:a1:26:f5:
                    14:80:db:c9:74:2e:67:08:3e:33:03:f7:15:e0:82:
                    2c:61:c1:f1:cc:7b:7b:b0:0c:7e:81:a9:65:cb:64:
                    3c:ca:8d:05:8f:bd:a3:2d:57:f3:38:9e:55:2d:ab:
                    df:c9:9c:ec:f6:0d:de:a4:47:15:21:a0:d3:5e:31:
                    0d:48:d9:d7:cb:52:65:ff:e7:2d:6a:06:db:ee:64:
                    c2:8c:f0:a6:b3:68:96:94:f1:8e:c8:5d:d8:2b:ca:
                    ee:73
                Exponent: 65537 (0x10001)
    Signature Algorithm: sha512WithRSAEncryption
         40:79:1c:83:7a:89:c0:e9:be:a6:69:68:53:b4:0d:6b:b9:71:
         dd:18:b2:6c:5b:54:02:f7:d6:05:a6:0a:26:b0:72:5c:d3:f8:
         43:e9:ff:aa:14:28:36:8c:df:a3:70:67:67:cb:a9:a1:9a:34:
         1d:2e:9f:f2:d5:5b:01:05:eb:f6:ee:25:87:7f:02:d5:42:b9:
         4c:ac:ab:21:a8:c6:4b:cd:e6:72:01:11:80:9c:ab:ac:5c:d8:
         b3:4f:7e:9f:c3:6b:e1:c8:53:80:9f:b5:4d:80:9f:d6:de:c4:
         07:b2:0d:a1:74:76:68:22:21:85:33:a3:6e:26:c8:6f:f2:45:
         7e:05:62:ef:90:0e:7e:3e:59:4d:88:1a:d9:b9:71:68:7d:88:
         78:e1:3b:73:21:2c:98:40:93:f3:7a:a8:86:79:b6:36:34:27:
         f3:d1:c6:42:4d:84:78:69:c7:51:46:d2:9c:53:37:54:3d:b9:
         3e:df:82:3f:d4:fd:b4:d3:68:32:3c:af:25:35:d1:02:b4:8a:
         d2:be:06:b8:83:7e:0d:69:56:fa:c1:42:70:34:31:2c:fe:30:
         d5:ea:8f:2f:d2:3d:8f:b0:12:76:d0:49:d9:3a:e6:a3:eb:fc:
         8e:28:ba:8b:a0:b5:db:87:74:34:0a:2e:ef:38:50:86:6a:a7:
         69:79:52:14
-----BEGIN CERTIFICATE-----
MIIDgDCCAmgCAQEwDQYJKoZIhvcNAQENBQAwgYUxCzAJBgNVBAYTAlVTMQswCQYD
VQQIDAJDQTEVMBMGA1UECgwMT3BlbiB2U3dpdGNoMREwDwYDVQQLDAhzd2l0Y2hj
YTE/MD0GA1UEAww2T1ZTIHN3aXRjaGNhIENBIENlcnRpZmljYXRlICgyMDIwIDfD
psKcwoggMDUgMDk6NDM6NTIpMB4XDTIwMDcwNTAxNDM1MloXDTMwMDcwMzAxNDM1
MlowgYUxCzAJBgNVBAYTAlVTMQswCQYDVQQIDAJDQTEVMBMGA1UECgwMT3BlbiB2
U3dpdGNoMREwDwYDVQQLDAhzd2l0Y2hjYTE/MD0GA1UEAww2T1ZTIHN3aXRjaGNh
IENBIENlcnRpZmljYXRlICgyMDIwIDfDpsKcwoggMDUgMDk6NDM6NTIpMIIBIjAN
BgkqhkiG9w0BAQEFAAOCAQ8AMIIBCgKCAQEAsgP/jRI5f/QDGhwrpVhx4G4PewV1
npz7+NLYLHhAOS6GSNNfOKsK4+MgiQDaiaEbujhvRnpGI4nNG3RKZ2Ae7o7XvcbE
gskSZ62xxO2oxoQC/7OAWOpEaD79jDgy3PmD+JTzv8d1/ENNtEDRGccY1NOBKjzp
a0GZbGYIaYiWXh3O6ZQJfZIFxI1bke0dxL/8ZOQM5y9O3i2vAvua9v/6rsehJvUU
gNvJdC5nCD4zA/cV4IIsYcHxzHt7sAx+gally2Q8yo0Fj72jLVfzOJ5VLavfyZzs
9g3epEcVIaDTXjENSNnXy1Jl/+ctagbb7mTCjPCms2iWlPGOyF3YK8rucwIDAQAB
MA0GCSqGSIb3DQEBDQUAA4IBAQBAeRyDeonA6b6maWhTtA1ruXHdGLJsW1QC99YF
pgomsHJc0/hD6f+qFCg2jN+jcGdny6mhmjQdLp/y1VsBBev27iWHfwLVQrlMrKsh
qMZLzeZyARGAnKusXNizT36fw2vhyFOAn7VNgJ/W3sQHsg2hdHZoIiGFM6NuJshv
8kV+BWLvkA5+PllNiBrZuXFofYh44TtzISyYQJPzeqiGebY2NCfz0cZCTYR4acdR
RtKcUzdUPbk+34I/1P2002gyPK8lNdECtIrSvga4g34NaVb6wUJwNDEs/jDV6o8v
0j2PsBJ20EnZOuaj6/yOKLqLoLXbh3Q0Ci7vOFCGaqdpeVIU
-----END CERTIFICATE-----
