Certificate:
    Data:
        Version: 1 (0x0)
        Serial Number: 2 (0x2)
    Signature Algorithm: sha512WithRSAEncryption
        Issuer: C=US, ST=CA, O=Open vSwitch, OU=switchca, CN=OVS switchca CA Certificate (2020 7\xC3\xA6\xC2\x9C\xC2\x88 05 09:43:52)
        Validity
            Not Before: Jul  5 01:43:52 2020 GMT
            Not After : Jul  3 01:43:52 2030 GMT
        Subject: C=US, ST=CA, O=Open vSwitch, OU=Open vSwitch certifier, CN=tests/pki/test id:018723d5-2ceb-48b9-9447-491a7718413e
        Subject Public Key Info:
            Public Key Algorithm: rsaEncryption
                Public-Key: (2048 bit)
                Modulus:
                    00:c8:c9:79:bf:f5:a4:c3:b3:61:7c:09:f2:4d:12:
                    65:4a:b5:13:2c:de:5f:9f:43:d0:ae:1c:0c:a5:ca:
                    d4:c2:d3:46:c9:6d:88:23:a3:5b:7d:f4:0d:b7:69:
                    c6:7c:cd:7b:d5:63:17:3e:28:55:aa:42:4f:20:1c:
                    40:92:82:d8:91:f5:b2:13:0e:9e:71:e6:ff:48:3f:
                    1c:0c:ff:e2:b4:28:65:26:d7:e2:13:3e:3d:7b:2d:
                    fb:91:86:f6:fc:d9:c8:8c:6e:a8:5e:13:76:b6:35:
                    9f:66:f6:63:7b:e8:9a:94:6e:7e:03:dd:56:c7:71:
                    a6:7c:66:00:67:92:dc:37:1b:bc:fb:02:b3:9b:50:
                    f0:25:7e:c3:30:5e:55:ea:a3:45:a7:31:5d:05:ce:
                    46:ca:32:53:b9:25:ef:32:d6:54:f9:ee:36:e6:7f:
                    e4:a9:21:96:de:ab:7b:c1:ec:bd:13:50:c1:f2:a1:
                    62:3d:2e:90:7d:3d:07:a3:dd:b8:68:5d:ec:ef:7d:
                    5a:33:6c:fe:e7:f1:9b:33:86:6e:17:0b:a0:4d:41:
                    b0:5e:db:b7:96:59:9f:be:85:42:50:56:8a:f0:c3:
                    34:6c:ac:54:fa:8e:d7:07:bb:97:53:f9:e5:23:a8:
                    7a:e1:ff:85:df:71:95:aa:90:78:40:5e:8c:19:cd:
                    78:1b
                Exponent: 65537 (0x10001)
    Signature Algorithm: sha512WithRSAEncryption
         a9:57:28:86:64:1d:70:85:3a:5c:f2:45:61:aa:be:d2:b7:03:
         25:f9:45:b1:15:35:a9:61:5e:6a:2d:b0:08:56:fe:7b:de:d3:
         4d:d6:cf:c1:4d:f7:3b:a9:c4:72:66:1a:c3:84:04:9f:93:6d:
         51:3b:7b:14:78:aa:2e:36:55:ba:89:85:3a:5e:fe:20:53:e6:
         b5:77:cb:03:06:ee:d7:e2:bf:64:40:8a:46:4c:d3:d7:04:4c:
         72:a7:0b:73:08:73:03:59:9d:28:b2:30:15:03:54:1e:0e:21:
         70:0a:74:9a:70:2c:36:c4:c2:77:59:e5:a8:cb:4c:7e:1e:cc:
         92:e5:d1:a9:d1:76:aa:7d:1f:28:c6:0f:69:a9:8c:c1:6e:95:
         c1:72:5a:04:e9:5d:d6:4b:39:7d:73:61:7f:af:d0:c4:28:cd:
         d9:c9:8b:51:89:90:0e:51:17:8f:d1:16:21:84:64:1d:ed:f9:
         3f:a5:6e:4c:b3:a6:aa:87:f8:79:4b:e4:8b:36:77:51:bb:e4:
         3a:87:4c:81:c0:a1:15:af:05:36:af:e4:9d:85:8e:0a:e6:1c:
         8d:47:13:b9:c2:97:b5:f7:48:29:c8:e5:2f:81:65:dd:d2:e7:
         b9:2f:92:2c:75:c0:f3:4e:f3:5e:b5:a0:b9:b0:ed:f2:b2:44:
         9e:52:0b:e2
-----BEGIN CERTIFICATE-----
MIIDjjCCAnYCAQIwDQYJKoZIhvcNAQENBQAwgYUxCzAJBgNVBAYTAlVTMQswCQYD
VQQIDAJDQTEVMBMGA1UECgwMT3BlbiB2U3dpdGNoMREwDwYDVQQLDAhzd2l0Y2hj
YTE/MD0GA1UEAww2T1ZTIHN3aXRjaGNhIENBIENlcnRpZmljYXRlICgyMDIwIDfD
psKcwoggMDUgMDk6NDM6NTIpMB4XDTIwMDcwNTAxNDM1MloXDTMwMDcwMzAxNDM1
MlowgZMxCzAJBgNVBAYTAlVTMQswCQYDVQQIDAJDQTEVMBMGA1UECgwMT3BlbiB2
U3dpdGNoMR8wHQYDVQQLDBZPcGVuIHZTd2l0Y2ggY2VydGlmaWVyMT8wPQYDVQQD
DDZ0ZXN0cy9wa2kvdGVzdCBpZDowMTg3MjNkNS0yY2ViLTQ4YjktOTQ0Ny00OTFh
NzcxODQxM2UwggEiMA0GCSqGSIb3DQEBAQUAA4IBDwAwggEKAoIBAQDIyXm/9aTD
s2F8CfJNEmVKtRMs3l+fQ9CuHAylytTC00bJbYgjo1t99A23acZ8zXvVYxc+KFWq
Qk8gHECSgtiR9bITDp5x5v9IPxwM/+K0KGUm1+ITPj17LfuRhvb82ciMbqheE3a2
NZ9m9mN76JqUbn4D3VbHcaZ8ZgBnktw3G7z7ArObUPAlfsMwXlXqo0WnMV0FzkbK
MlO5Je8y1lT57jbmf+SpIZbeq3vB7L0TUMHyoWI9LpB9PQej3bhoXezvfVozbP7n
8Zszhm4XC6BNQbBe27eWWZ++hUJQVorwwzRsrFT6jtcHu5dT+eUjqHrh/4XfcZWq
kHhAXowZzXgbAgMBAAEwDQYJKoZIhvcNAQENBQADggEBAKlXKIZkHXCFOlzyRWGq
vtK3AyX5RbEVNalhXmotsAhW/nve003Wz8FN9zupxHJmGsOEBJ+TbVE7exR4qi42
VbqJhTpe/iBT5rV3ywMG7tfiv2RAikZM09cETHKnC3MIcwNZnSiyMBUDVB4OIXAK
dJpwLDbEwndZ5ajLTH4ezJLl0anRdqp9HyjGD2mpjMFulcFyWgTpXdZLOX1zYX+v
0MQozdnJi1GJkA5RF4/RFiGEZB3t+T+lbkyzpqqH+HlL5Is2d1G75DqHTIHAoRWv
BTav5J2FjgrmHI1HE7nCl7X3SCnI5S+BZd3S57kvkix1wPNO8161oLmw7fKyRJ5S
C+I=
-----END CERTIFICATE-----
