Certificate Request:
    Data:
        Version: 0 (0x0)
        Subject: C=US, ST=CA, L=Palo Alto, O=Open vSwitch, OU=Open vSwitch certifier, CN=tests/pki/test2 id:c5ee9995-bcee-4e0e-b640-ef7a13444d5d
        Subject Public Key Info:
            Public Key Algorithm: rsaEncryption
                Public-Key: (2048 bit)
                Modulus:
                    00:b5:ce:a7:23:f6:e6:f6:7c:ae:c4:3e:a8:ea:1b:
                    53:0b:99:fa:07:cc:7c:04:e9:db:7f:2e:5a:1f:57:
                    8d:d6:c1:39:35:34:30:37:83:83:e6:18:22:8d:32:
                    52:22:aa:af:32:cf:06:01:6c:9e:93:07:86:56:b1:
                    99:d7:4f:a7:cf:67:35:3e:81:5c:31:86:51:6f:aa:
                    f8:ff:6b:41:a4:18:d8:38:6c:8f:b1:45:39:22:43:
                    8a:58:12:ed:52:5c:24:c4:f2:f6:81:e7:f8:e8:48:
                    b8:c3:0e:05:b7:9f:87:86:64:47:b7:69:b7:4e:75:
                    79:ef:5d:9a:6a:1d:96:51:0b:5d:c8:1f:c0:2c:2d:
                    28:72:bb:f1:44:d2:92:4b:1f:06:7f:37:24:1a:ab:
                    cc:45:dc:d4:4f:3b:c6:62:e3:f8:d0:79:eb:3b:78:
                    d1:86:35:fd:9e:55:c9:75:58:8d:15:15:bd:f4:59:
                    29:1a:39:93:e5:42:53:ec:0f:d6:f0:1b:e6:96:7e:
                    c1:2b:fe:07:0b:24:04:18:7c:6e:03:00:f3:06:d6:
                    ff:92:45:e2:84:8d:b8:4b:e5:b6:c9:22:a8:1d:ce:
                    25:a9:60:a8:73:6d:83:9a:fe:7f:79:75:f5:01:b0:
                    ed:0c:40:36:8f:20:90:1b:0e:fb:47:71:61:16:01:
                    2d:a5
                Exponent: 65537 (0x10001)
        Attributes:
            a0:00
    Signature Algorithm: sha256WithRSAEncryption
         98:92:aa:b0:8b:b7:09:5e:9f:d9:30:21:14:23:22:29:4c:c4:
         11:7d:f4:8f:4e:dc:2a:b8:2f:d2:8d:87:04:46:ec:64:56:a4:
         e1:c3:44:13:ee:80:da:3c:2d:c9:91:76:49:5f:24:bb:86:89:
         44:05:fe:97:37:16:d4:2d:82:22:63:2c:e6:d4:76:13:9d:61:
         3f:e7:4b:8f:5c:c0:33:0a:f8:2e:7d:7a:28:08:a9:46:ae:f0:
         4f:af:d6:ec:2c:10:13:18:43:e9:b0:d4:ad:b7:09:60:ea:95:
         42:47:11:09:48:9f:f6:3a:08:18:07:fb:67:76:d3:fa:0d:9a:
         9b:04:4a:40:8a:2a:20:05:d0:bd:cf:d8:03:ba:f5:1e:fd:23:
         3e:05:1e:63:79:cc:46:83:0b:ec:b4:08:fe:5c:4a:62:86:dc:
         15:d5:2b:2a:81:17:31:1b:7e:ea:db:fd:57:8b:ed:19:74:7a:
         f8:78:68:4e:42:d3:7a:5f:75:fa:bc:d5:f1:03:46:22:db:84:
         76:ec:a5:76:8a:ad:6e:ff:e2:08:0d:bd:54:a1:6c:3b:c4:0c:
         86:27:46:5a:d1:67:84:2a:56:74:5f:02:b7:83:38:eb:77:92:
         94:6b:fb:93:e9:00:6c:02:2b:2a:28:e4:bf:09:75:9f:b7:bf:
         cf:ab:f5:69
-----BEGIN CERTIFICATE REQUEST-----
MIIC7jCCAdYCAQAwgagxCzAJBgNVBAYTAlVTMQswCQYDVQQIDAJDQTESMBAGA1UE
BwwJUGFsbyBBbHRvMRUwEwYDVQQKDAxPcGVuIHZTd2l0Y2gxHzAdBgNVBAsMFk9w
ZW4gdlN3aXRjaCBjZXJ0aWZpZXIxQDA+BgNVBAMMN3Rlc3RzL3BraS90ZXN0MiBp
ZDpjNWVlOTk5NS1iY2VlLTRlMGUtYjY0MC1lZjdhMTM0NDRkNWQwggEiMA0GCSqG
SIb3DQEBAQUAA4IBDwAwggEKAoIBAQC1zqcj9ub2fK7EPqjqG1MLmfoHzHwE6dt/
LlofV43WwTk1NDA3g4PmGCKNMlIiqq8yzwYBbJ6TB4ZWsZnXT6fPZzU+gVwxhlFv
qvj/a0GkGNg4bI+xRTkiQ4pYEu1SXCTE8vaB5/joSLjDDgW3n4eGZEe3abdOdXnv
XZpqHZZRC13IH8AsLShyu/FE0pJLHwZ/NyQaq8xF3NRPO8Zi4/jQees7eNGGNf2e
Vcl1WI0VFb30WSkaOZPlQlPsD9bwG+aWfsEr/gcLJAQYfG4DAPMG1v+SReKEjbhL
5bbJIqgdziWpYKhzbYOa/n95dfUBsO0MQDaPIJAbDvtHcWEWAS2lAgMBAAGgADAN
BgkqhkiG9w0BAQsFAAOCAQEAmJKqsIu3CV6f2TAhFCMiKUzEEX30j07cKrgv0o2H
BEbsZFak4cNEE+6A2jwtyZF2SV8ku4aJRAX+lzcW1C2CImMs5tR2E51hP+dLj1zA
Mwr4Ln16KAipRq7wT6/W7CwQExhD6bDUrbcJYOqVQkcRCUif9joIGAf7Z3bT+g2a
mwRKQIoqIAXQvc/YA7r1Hv0jPgUeY3nMRoML7LQI/lxKYobcFdUrKoEXMRt+6tv9
V4vtGXR6+HhoTkLTel91+rzV8QNGItuEduyldoqtbv/iCA29VKFsO8QMhidGWtFn
hCpWdF8Ct4M463eSlGv7k+kAbAIrKijkvwl1n7e/z6v1aQ==
-----END CERTIFICATE REQUEST-----
