Certificate Request:
    Data:
        Version: 0 (0x0)
        Subject: C=US, ST=CA, L=Palo Alto, O=Open vSwitch, OU=Open vSwitch certifier, CN=tests/pki/test id:018723d5-2ceb-48b9-9447-491a7718413e
        Subject Public Key Info:
            Public Key Algorithm: rsaEncryption
                Public-Key: (2048 bit)
                Modulus:
                    00:c8:c9:79:bf:f5:a4:c3:b3:61:7c:09:f2:4d:12:
                    65:4a:b5:13:2c:de:5f:9f:43:d0:ae:1c:0c:a5:ca:
                    d4:c2:d3:46:c9:6d:88:23:a3:5b:7d:f4:0d:b7:69:
                    c6:7c:cd:7b:d5:63:17:3e:28:55:aa:42:4f:20:1c:
                    40:92:82:d8:91:f5:b2:13:0e:9e:71:e6:ff:48:3f:
                    1c:0c:ff:e2:b4:28:65:26:d7:e2:13:3e:3d:7b:2d:
                    fb:91:86:f6:fc:d9:c8:8c:6e:a8:5e:13:76:b6:35:
                    9f:66:f6:63:7b:e8:9a:94:6e:7e:03:dd:56:c7:71:
                    a6:7c:66:00:67:92:dc:37:1b:bc:fb:02:b3:9b:50:
                    f0:25:7e:c3:30:5e:55:ea:a3:45:a7:31:5d:05:ce:
                    46:ca:32:53:b9:25:ef:32:d6:54:f9:ee:36:e6:7f:
                    e4:a9:21:96:de:ab:7b:c1:ec:bd:13:50:c1:f2:a1:
                    62:3d:2e:90:7d:3d:07:a3:dd:b8:68:5d:ec:ef:7d:
                    5a:33:6c:fe:e7:f1:9b:33:86:6e:17:0b:a0:4d:41:
                    b0:5e:db:b7:96:59:9f:be:85:42:50:56:8a:f0:c3:
                    34:6c:ac:54:fa:8e:d7:07:bb:97:53:f9:e5:23:a8:
                    7a:e1:ff:85:df:71:95:aa:90:78:40:5e:8c:19:cd:
                    78:1b
                Exponent: 65537 (0x10001)
        Attributes:
            a0:00
    Signature Algorithm: sha256WithRSAEncryption
         bb:6c:d1:da:d9:d0:5a:fe:71:f2:7d:e9:08:b9:d9:c3:12:93:
         9c:7c:c6:a1:ea:40:8d:d4:73:03:e1:67:15:9a:8b:be:22:3c:
         20:1a:88:5d:b1:5a:82:b9:8f:81:36:69:fb:fe:4b:6f:51:2e:
         52:ba:97:d2:bd:d8:80:67:85:70:da:58:84:c6:dc:1b:cc:70:
         81:4a:86:70:4a:31:36:c3:68:68:13:f9:23:3c:c4:3c:14:43:
         0d:9e:8f:df:d2:fd:ae:c2:91:a3:a1:d3:ca:06:4b:76:50:e1:
         19:89:8a:c2:2d:f2:63:29:a6:94:e9:cd:9c:f2:a1:bb:41:9e:
         87:b1:82:b7:36:cc:30:c2:ee:22:66:4d:66:ed:b2:7b:fa:60:
         d8:09:93:f4:89:ca:79:38:f6:41:c4:b2:96:99:4c:4b:6c:d5:
         9d:f0:d5:d2:10:3d:1d:56:e2:3f:f8:af:99:40:52:68:5d:a5:
         d0:36:c8:7b:7f:9b:2f:0e:ff:b2:9c:f1:6b:89:85:5d:a7:1c:
         8f:8b:1f:28:db:4a:19:a1:ee:bd:7e:ad:ea:f9:ac:68:9b:33:
         26:02:2b:d1:0b:4d:34:ae:43:7b:4a:13:64:11:99:6c:28:26:
         b0:88:0a:53:0a:c2:a3:af:dc:42:06:43:65:8c:8a:65:58:2a:
         09:9d:7e:90
-----BEGIN CERTIFICATE REQUEST-----
MIIC7TCCAdUCAQAwgacxCzAJBgNVBAYTAlVTMQswCQYDVQQIDAJDQTESMBAGA1UE
BwwJUGFsbyBBbHRvMRUwEwYDVQQKDAxPcGVuIHZTd2l0Y2gxHzAdBgNVBAsMFk9w
ZW4gdlN3aXRjaCBjZXJ0aWZpZXIxPzA9BgNVBAMMNnRlc3RzL3BraS90ZXN0IGlk
OjAxODcyM2Q1LTJjZWItNDhiOS05NDQ3LTQ5MWE3NzE4NDEzZTCCASIwDQYJKoZI
hvcNAQEBBQADggEPADCCAQoCggEBAMjJeb/1pMOzYXwJ8k0SZUq1EyzeX59D0K4c
DKXK1MLTRsltiCOjW330DbdpxnzNe9VjFz4oVapCTyAcQJKC2JH1shMOnnHm/0g/
HAz/4rQoZSbX4hM+PXst+5GG9vzZyIxuqF4TdrY1n2b2Y3vompRufgPdVsdxpnxm
AGeS3DcbvPsCs5tQ8CV+wzBeVeqjRacxXQXORsoyU7kl7zLWVPnuNuZ/5Kkhlt6r
e8HsvRNQwfKhYj0ukH09B6PduGhd7O99WjNs/ufxmzOGbhcLoE1BsF7bt5ZZn76F
QlBWivDDNGysVPqO1we7l1P55SOoeuH/hd9xlaqQeEBejBnNeBsCAwEAAaAAMA0G
CSqGSIb3DQEBCwUAA4IBAQC7bNHa2dBa/nHyfekIudnDEpOcfMah6kCN1HMD4WcV
mou+IjwgGohdsVqCuY+BNmn7/ktvUS5SupfSvdiAZ4Vw2liExtwbzHCBSoZwSjE2
w2hoE/kjPMQ8FEMNno/f0v2uwpGjodPKBkt2UOEZiYrCLfJjKaaU6c2c8qG7QZ6H
sYK3Nswwwu4iZk1m7bJ7+mDYCZP0icp5OPZBxLKWmUxLbNWd8NXSED0dVuI/+K+Z
QFJoXaXQNsh7f5svDv+ynPFriYVdpxyPix8o20oZoe69fq3q+axomzMmAivRC000
rkN7ShNkEZlsKCawiApTCsKjr9xCBkNljIplWCoJnX6Q
-----END CERTIFICATE REQUEST-----
