Certificate:
    Data:
        Version: 1 (0x0)
        Serial Number: 3 (0x3)
    Signature Algorithm: sha512WithRSAEncryption
        Issuer: C=US, ST=CA, O=Open vSwitch, OU=switchca, CN=OVS switchca CA Certificate (2020 7\xC3\xA6\xC2\x9C\xC2\x88 05 09:43:52)
        Validity
            Not Before: Jul  5 01:43:52 2020 GMT
            Not After : Jul  3 01:43:52 2030 GMT
        Subject: C=US, ST=CA, O=Open vSwitch, OU=Open vSwitch certifier, CN=tests/pki/test2 id:c5ee9995-bcee-4e0e-b640-ef7a13444d5d
        Subject Public Key Info:
            Public Key Algorithm: rsaEncryption
                Public-Key: (2048 bit)
                Modulus:
                    00:b5:ce:a7:23:f6:e6:f6:7c:ae:c4:3e:a8:ea:1b:
                    53:0b:99:fa:07:cc:7c:04:e9:db:7f:2e:5a:1f:57:
                    8d:d6:c1:39:35:34:30:37:83:83:e6:18:22:8d:32:
                    52:22:aa:af:32:cf:06:01:6c:9e:93:07:86:56:b1:
                    99:d7:4f:a7:cf:67:35:3e:81:5c:31:86:51:6f:aa:
                    f8:ff:6b:41:a4:18:d8:38:6c:8f:b1:45:39:22:43:
                    8a:58:12:ed:52:5c:24:c4:f2:f6:81:e7:f8:e8:48:
                    b8:c3:0e:05:b7:9f:87:86:64:47:b7:69:b7:4e:75:
                    79:ef:5d:9a:6a:1d:96:51:0b:5d:c8:1f:c0:2c:2d:
                    28:72:bb:f1:44:d2:92:4b:1f:06:7f:37:24:1a:ab:
                    cc:45:dc:d4:4f:3b:c6:62:e3:f8:d0:79:eb:3b:78:
                    d1:86:35:fd:9e:55:c9:75:58:8d:15:15:bd:f4:59:
                    29:1a:39:93:e5:42:53:ec:0f:d6:f0:1b:e6:96:7e:
                    c1:2b:fe:07:0b:24:04:18:7c:6e:03:00:f3:06:d6:
                    ff:92:45:e2:84:8d:b8:4b:e5:b6:c9:22:a8:1d:ce:
                    25:a9:60:a8:73:6d:83:9a:fe:7f:79:75:f5:01:b0:
                    ed:0c:40:36:8f:20:90:1b:0e:fb:47:71:61:16:01:
                    2d:a5
                Exponent: 65537 (0x10001)
    Signature Algorithm: sha512WithRSAEncryption
         60:20:0c:a0:55:6d:c0:d2:7e:e5:36:8f:f0:f6:77:7e:da:29:
         46:62:7e:1b:41:3e:db:42:6b:5a:7f:3e:8a:00:82:9d:4c:a8:
         1d:65:84:34:f0:dc:e5:8a:de:66:84:55:1b:cc:89:5e:33:49:
         07:e4:10:40:6e:09:dc:4f:50:8c:4e:72:9c:83:5a:ca:f8:54:
         28:c2:26:c9:0d:7a:90:41:74:ee:42:ee:40:d8:02:af:58:dc:
         81:64:da:85:ad:2d:e8:b2:9a:37:8f:be:71:79:1d:87:ae:56:
         cb:15:c1:3a:c6:b1:6e:8d:73:17:96:20:c8:ea:6a:5c:c9:2e:
         09:65:09:f9:6a:b0:c2:5d:47:7f:ea:ca:9d:34:43:42:08:bd:
         6d:6a:14:53:19:3d:51:e3:ba:9e:e3:78:8e:c3:bb:73:06:04:
         88:57:68:b8:b0:5d:4f:0c:ff:a6:d6:cc:77:72:39:70:a5:6a:
         8e:37:6f:81:a3:c7:57:e8:f0:70:d9:25:d8:07:b1:5c:8e:66:
         b4:99:5b:81:97:a6:dd:8b:75:ae:1b:43:4d:5f:b0:13:7f:20:
         4a:63:61:23:35:7e:24:da:7f:b9:47:52:b5:bf:9a:fb:4b:6f:
         d1:72:6c:26:e7:c5:e3:88:e9:a5:4c:75:df:8a:47:0c:96:2f:
         58:6f:c1:46
-----BEGIN CERTIFICATE-----
MIIDjzCCAncCAQMwDQYJKoZIhvcNAQENBQAwgYUxCzAJBgNVBAYTAlVTMQswCQYD
VQQIDAJDQTEVMBMGA1UECgwMT3BlbiB2U3dpdGNoMREwDwYDVQQLDAhzd2l0Y2hj
YTE/MD0GA1UEAww2T1ZTIHN3aXRjaGNhIENBIENlcnRpZmljYXRlICgyMDIwIDfD
psKcwoggMDUgMDk6NDM6NTIpMB4XDTIwMDcwNTAxNDM1MloXDTMwMDcwMzAxNDM1
MlowgZQxCzAJBgNVBAYTAlVTMQswCQYDVQQIDAJDQTEVMBMGA1UECgwMT3BlbiB2
U3dpdGNoMR8wHQYDVQQLDBZPcGVuIHZTd2l0Y2ggY2VydGlmaWVyMUAwPgYDVQQD
DDd0ZXN0cy9wa2kvdGVzdDIgaWQ6YzVlZTk5OTUtYmNlZS00ZTBlLWI2NDAtZWY3
YTEzNDQ0ZDVkMIIBIjANBgkqhkiG9w0BAQEFAAOCAQ8AMIIBCgKCAQEAtc6nI/bm
9nyuxD6o6htTC5n6B8x8BOnbfy5aH1eN1sE5NTQwN4OD5hgijTJSIqqvMs8GAWye
kweGVrGZ10+nz2c1PoFcMYZRb6r4/2tBpBjYOGyPsUU5IkOKWBLtUlwkxPL2gef4
6Ei4ww4Ft5+HhmRHt2m3TnV5712aah2WUQtdyB/ALC0ocrvxRNKSSx8GfzckGqvM
RdzUTzvGYuP40HnrO3jRhjX9nlXJdViNFRW99FkpGjmT5UJT7A/W8Bvmln7BK/4H
CyQEGHxuAwDzBtb/kkXihI24S+W2ySKoHc4lqWCoc22Dmv5/eXX1AbDtDEA2jyCQ
Gw77R3FhFgEtpQIDAQABMA0GCSqGSIb3DQEBDQUAA4IBAQBgIAygVW3A0n7lNo/w
9nd+2ilGYn4bQT7bQmtafz6KAIKdTKgdZYQ08Nzlit5mhFUbzIleM0kH5BBAbgnc
T1CMTnKcg1rK+FQowibJDXqQQXTuQu5A2AKvWNyBZNqFrS3ospo3j75xeR2HrlbL
FcE6xrFujXMXliDI6mpcyS4JZQn5arDCXUd/6sqdNENCCL1tahRTGT1R47qe43iO
w7tzBgSIV2i4sF1PDP+m1sx3cjlwpWqON2+Bo8dX6PBw2SXYB7Fcjma0mVuBl6bd
i3WuG0NNX7ATfyBKY2EjNX4k2n+5R1K1v5r7S2/Rcmwm58XjiOmlTHXfikcMli9Y
b8FG
-----END CERTIFICATE-----
