Certificate:
    Data:
        Version: 1 (0x0)
        Serial Number: 1 (0x1)
    Signature Algorithm: sha512WithRSAEncryption
        Issuer: C=US, ST=CA, O=Open vSwitch, OU=controllerca, CN=OVS controllerca CA Certificate (2020 7\xC3\xA6\xC2\x9C\xC2\x88 05 09:43:52)
        Validity
            Not Before: Jul  5 01:43:52 2020 GMT
            Not After : Jul  3 01:43:52 2030 GMT
        Subject: C=US, ST=CA, O=Open vSwitch, OU=controllerca, CN=OVS controllerca CA Certificate (2020 7\xC3\xA6\xC2\x9C\xC2\x88 05 09:43:52)
        Subject Public Key Info:
            Public Key Algorithm: rsaEncryption
                Public-Key: (2048 bit)
                Modulus:
                    00:db:0b:7e:87:05:9a:a7:ec:62:5f:01:3b:3b:ed:
                    2e:48:88:11:95:52:d4:4b:b7:03:0b:9c:9b:73:cf:
                    c3:e9:75:8b:e3:3b:12:d5:e4:0b:94:ac:a3:a1:85:
                    1d:45:be:e8:53:53:eb:c5:d7:ad:f5:58:bd:27:c4:
                    3d:09:1a:b4:c4:4c:be:a9:07:f8:a7:5e:ba:e0:06:
                    6a:f0:8a:cf:f7:71:ec:5f:3a:dd:6d:5f:90:b0:25:
                    00:ac:8e:46:21:a0:9e:2d:5c:2f:d3:6b:76:28:0f:
                    62:5f:7f:6b:1f:63:bb:d3:53:6b:2e:d5:60:a8:63:
                    0b:82:b9:63:4c:0b:5a:6d:ca:ea:e2:9e:b0:62:42:
                    af:06:3a:e6:23:7c:54:6e:ca:f8:85:93:f1:9f:82:
                    98:1f:7f:77:71:67:d0:0d:98:f9:cc:2e:e0:ca:d0:
                    b7:b9:79:3a:73:5a:3d:7f:93:f7:38:14:b2:3a:09:
                    7c:6b:bb:47:14:52:0b:d6:5d:c9:e1:f4:3c:3a:9f:
                    42:45:77:65:5c:9a:8b:55:7b:d8:1c:a2:78:b9:c9:
                    92:2d:d0:91:5b:f2:78:de:6c:dd:f3:f7:48:ae:39:
                    f5:84:46:64:b3:1a:5a:0b:c2:37:f7:93:6b:b1:e6:
                    a9:df:1f:a1:cb:39:7b:68:2d:dd:e0:95:46:61:2c:
                    f3:2d
                Exponent: 65537 (0x10001)
    Signature Algorithm: sha512WithRSAEncryption
         c7:cd:fd:9c:3b:3e:46:80:ee:26:df:9d:8e:ae:15:50:46:41:
         57:0d:27:4a:cb:7a:45:9e:a4:e3:7b:b0:70:4f:d1:b6:05:13:
         58:36:29:b0:8c:11:7e:15:72:f4:0b:39:4e:cb:b3:b3:59:6d:
         1b:c5:ea:28:78:97:9f:9c:24:2b:68:94:06:6c:9a:02:84:2d:
         9a:08:69:af:66:06:a8:f5:77:50:6e:66:79:d3:6c:87:5b:cc:
         29:cf:4f:fa:3e:e9:22:d4:af:73:89:ac:18:b0:f6:a2:93:73:
         b3:b8:b6:77:4b:0a:02:d6:24:8f:a3:39:cc:d5:cf:a2:0d:3f:
         eb:5c:b2:6d:d2:8a:07:c6:d7:a9:d9:df:e5:81:5d:18:76:c9:
         af:93:86:8c:28:87:1a:db:34:e7:93:90:5a:b5:27:f1:6f:55:
         0d:e1:44:e6:e6:8f:0e:22:34:31:e0:0c:f4:f2:50:c6:1d:96:
         10:d1:3b:e7:a2:5c:89:c4:a0:90:f3:91:11:d4:2d:04:fd:f6:
         92:af:97:8f:db:47:ed:8a:d7:0c:dd:c2:54:9f:f6:fa:87:ef:
         b3:f7:a5:e3:6a:44:53:c0:90:48:e3:b1:4e:2b:0f:95:fe:a5:
         81:2f:ba:6f:27:4e:39:27:ae:51:ac:87:37:47:52:2d:2a:5b:
         bb:2c:cc:a0
-----BEGIN CERTIFICATE-----
MIIDkDCCAngCAQEwDQYJKoZIhvcNAQENBQAwgY0xCzAJBgNVBAYTAlVTMQswCQYD
VQQIDAJDQTEVMBMGA1UECgwMT3BlbiB2U3dpdGNoMRUwEwYDVQQLDAxjb250cm9s
bGVyY2ExQzBBBgNVBAMMOk9WUyBjb250cm9sbGVyY2EgQ0EgQ2VydGlmaWNhdGUg
KDIwMjAgN8OmwpzCiCAwNSAwOTo0Mzo1MikwHhcNMjAwNzA1MDE0MzUyWhcNMzAw
NzAzMDE0MzUyWjCBjTELMAkGA1UEBhMCVVMxCzAJBgNVBAgMAkNBMRUwEwYDVQQK
DAxPcGVuIHZTd2l0Y2gxFTATBgNVBAsMDGNvbnRyb2xsZXJjYTFDMEEGA1UEAww6
T1ZTIGNvbnRyb2xsZXJjYSBDQSBDZXJ0aWZpY2F0ZSAoMjAyMCA3w6bCnMKIIDA1
IDA5OjQzOjUyKTCCASIwDQYJKoZIhvcNAQEBBQADggEPADCCAQoCggEBANsLfocF
mqfsYl8BOzvtLkiIEZVS1Eu3Awucm3PPw+l1i+M7EtXkC5Sso6GFHUW+6FNT68XX
rfVYvSfEPQkatMRMvqkH+KdeuuAGavCKz/dx7F863W1fkLAlAKyORiGgni1cL9Nr
digPYl9/ax9ju9NTay7VYKhjC4K5Y0wLWm3K6uKesGJCrwY65iN8VG7K+IWT8Z+C
mB9/d3Fn0A2Y+cwu4MrQt7l5OnNaPX+T9zgUsjoJfGu7RxRSC9ZdyeH0PDqfQkV3
ZVyai1V72ByieLnJki3QkVvyeN5s3fP3SK459YRGZLMaWgvCN/eTa7Hmqd8focs5
e2gt3eCVRmEs8y0CAwEAATANBgkqhkiG9w0BAQ0FAAOCAQEAx839nDs+RoDuJt+d
jq4VUEZBVw0nSst6RZ6k43uwcE/RtgUTWDYpsIwRfhVy9As5Tsuzs1ltG8XqKHiX
n5wkK2iUBmyaAoQtmghpr2YGqPV3UG5medNsh1vMKc9P+j7pItSvc4msGLD2opNz
s7i2d0sKAtYkj6M5zNXPog0/61yybdKKB8bXqdnf5YFdGHbJr5OGjCiHGts055OQ
WrUn8W9VDeFE5uaPDiI0MeAM9PJQxh2WENE756JcicSgkPOREdQtBP32kq+Xj9tH
7YrXDN3CVJ/2+ofvs/el42pEU8CQSOOxTisPlf6lgS+6bydOOSeuUayHN0dSLSpb
uyzMoA==
-----END CERTIFICATE-----
